; Function Attrs: mustprogress uwtable
define void @_ZN15b2FrictionJointC2EPK18b2FrictionJointDef(ptr noundef nonnull align 8 dereferenceable(240) %this, ptr noundef %def) unnamed_addr #1 align 2 personality ptr @__gxx_personality_v0 {
entry:
  tail call void @_ZN7b2JointC2EPK10b2JointDef(ptr noundef nonnull align 8 dereferenceable(128) %this, ptr noundef %def)
  store ptr getelementptr inbounds ({ [14 x ptr] }, ptr @_ZTV15b2FrictionJoint, i64 0, i32 0, i64 2), ptr %this, align 8
  %localAnchorA = getelementptr inbounds i8, ptr %def, i64 36
  %m_localAnchorA2 = getelementptr inbounds i8, ptr %this, i64 128
  %0 = load i64, ptr %localAnchorA, align 4
  store i64 %0, ptr %m_localAnchorA2, align 8
  %localAnchorB = getelementptr inbounds i8, ptr %def, i64 44
  %m_localAnchorB3 = getelementptr inbounds i8, ptr %this, i64 136
  %1 = load i64, ptr %localAnchorB, align 4
  store i64 %1, ptr %m_localAnchorB3, align 8
  %m_linearImpulse4 = getelementptr inbounds i8, ptr %this, i64 144
  store <2 x float> zeroinitializer, ptr %m_linearImpulse4, align 8
  %m_angularImpulse = getelementptr inbounds i8, ptr %this, i64 152
  store float 0.000000e+00, ptr %m_angularImpulse, align 8
  %maxForce = getelementptr inbounds i8, ptr %def, i64 52
  %2 = load float, ptr %maxForce, align 4
  %m_maxForce = getelementptr inbounds i8, ptr %this, i64 156
  store float %2, ptr %m_maxForce, align 4
  %maxTorque = getelementptr inbounds i8, ptr %def, i64 56
  %3 = load float, ptr %maxTorque, align 8
  %m_maxTorque = getelementptr inbounds i8, ptr %this, i64 160
  store float %3, ptr %m_maxTorque, align 8
  ret void
}